target datalayout = "e-m:e-p270:32:32-p271:32:32-p272:64:64-i64:64-i128:128-f80:128-n8:16:32:64-S128"
target triple = "x86_64-pc-linux-gnu"

%"class.cv::Rect_" = type { i32, i32, i32, i32 }
%"class.cv::Mat" = type { i32, i32, i32, i32, ptr, ptr, ptr, ptr, ptr, ptr, %"struct.cv::MatSize", %"struct.cv::MatStep" }
%"struct.cv::MatSize" = type { ptr }
%"struct.cv::MatStep" = type { ptr, [2 x i64] }

; Function Attrs: inlinehint mustprogress nounwind uwtable
define linkonce_odr hidden noundef ptr @_ZNK2cv3Mat3ptrIdEEPKT_i(ptr noundef nonnull align 8 dereferenceable(96) %0, i32 noundef %1) #6 comdat align 2 {
  %3 = alloca ptr, align 8
  %4 = alloca i32, align 4
  store ptr %0, ptr %3, align 8, !tbaa !3
  store i32 %1, ptr %4, align 4, !tbaa !29
  %5 = load ptr, ptr %3, align 8
  %6 = getelementptr inbounds nuw %"class.cv::Mat", ptr %5, i32 0, i32 4
  %7 = load ptr, ptr %6, align 8, !tbaa !34
  %8 = getelementptr inbounds nuw %"class.cv::Mat", ptr %5, i32 0, i32 11
  %9 = getelementptr inbounds nuw %"struct.cv::MatStep", ptr %8, i32 0, i32 0
  %10 = load ptr, ptr %9, align 8, !tbaa !35
  %11 = getelementptr inbounds i64, ptr %10, i64 0
  %12 = load i64, ptr %11, align 8, !tbaa !22
  %13 = load i32, ptr %4, align 4, !tbaa !29
  %14 = sext i32 %13 to i64
  %15 = mul i64 %12, %14
  %16 = getelementptr inbounds nuw i8, ptr %7, i64 %15
  ret ptr %16
}

; Function Attrs: inlinehint mustprogress nounwind uwtable
define linkonce_odr hidden noundef ptr @_ZNK2cv3Mat3ptrIiEEPKT_i(ptr noundef nonnull align 8 dereferenceable(96) %0, i32 noundef %1) #6 comdat align 2 {
  %3 = alloca ptr, align 8
  %4 = alloca i32, align 4
  store ptr %0, ptr %3, align 8, !tbaa !3
  store i32 %1, ptr %4, align 4, !tbaa !29
  %5 = load ptr, ptr %3, align 8
  %6 = getelementptr inbounds nuw %"class.cv::Mat", ptr %5, i32 0, i32 4
  %7 = load ptr, ptr %6, align 8, !tbaa !34
  %8 = getelementptr inbounds nuw %"class.cv::Mat", ptr %5, i32 0, i32 11
  %9 = getelementptr inbounds nuw %"struct.cv::MatStep", ptr %8, i32 0, i32 0
  %10 = load ptr, ptr %9, align 8, !tbaa !35
  %11 = getelementptr inbounds i64, ptr %10, i64 0
  %12 = load i64, ptr %11, align 8, !tbaa !22
  %13 = load i32, ptr %4, align 4, !tbaa !29
  %14 = sext i32 %13 to i64
  %15 = mul i64 %12, %14
  %16 = getelementptr inbounds nuw i8, ptr %7, i64 %15
  ret ptr %16
}

; Function Attrs: inlinehint mustprogress nounwind uwtable
define linkonce_odr hidden void @_ZN2cv5Rect_IiEC2Eiiii(ptr noundef nonnull align 4 dereferenceable(16) %0, i32 noundef %1, i32 noundef %2, i32 noundef %3, i32 noundef %4) unnamed_addr #6 comdat align 2 {
  %6 = alloca ptr, align 8
  %7 = alloca i32, align 4
  %8 = alloca i32, align 4
  %9 = alloca i32, align 4
  %10 = alloca i32, align 4
  store ptr %0, ptr %6, align 8, !tbaa !32
  store i32 %1, ptr %7, align 4, !tbaa !29
  store i32 %2, ptr %8, align 4, !tbaa !29
  store i32 %3, ptr %9, align 4, !tbaa !29
  store i32 %4, ptr %10, align 4, !tbaa !29
  %11 = load ptr, ptr %6, align 8
  %12 = getelementptr inbounds nuw %"class.cv::Rect_", ptr %11, i32 0, i32 0
  %13 = load i32, ptr %7, align 4, !tbaa !29
  store i32 %13, ptr %12, align 4, !tbaa !19
  %14 = getelementptr inbounds nuw %"class.cv::Rect_", ptr %11, i32 0, i32 1
  %15 = load i32, ptr %8, align 4, !tbaa !29
  store i32 %15, ptr %14, align 4, !tbaa !21
  %16 = getelementptr inbounds nuw %"class.cv::Rect_", ptr %11, i32 0, i32 2
  %17 = load i32, ptr %9, align 4, !tbaa !29
  store i32 %17, ptr %16, align 4, !tbaa !24
  %18 = getelementptr inbounds nuw %"class.cv::Rect_", ptr %11, i32 0, i32 3
  %19 = load i32, ptr %10, align 4, !tbaa !29
  store i32 %19, ptr %18, align 4, !tbaa !25
  ret void
}

; Function Attrs: mustprogress uwtable
define hidden noundef float @_ZN2cv10xobjdetect14calcNormFactorERKNS_3MatES3_(ptr noundef nonnull align 8 dereferenceable(96) %0, ptr noundef nonnull align 8 dereferenceable(96) %1) #4 {
  %3 = alloca ptr, align 8
  %4 = alloca ptr, align 8
  %5 = alloca %"class.cv::Rect_", align 4
  %6 = alloca i64, align 8
  %7 = alloca i64, align 8
  %8 = alloca i64, align 8
  %9 = alloca i64, align 8
  %10 = alloca double, align 8
  %11 = alloca ptr, align 8
  %12 = alloca i32, align 4
  %13 = alloca ptr, align 8
  %14 = alloca double, align 8
  store ptr %0, ptr %3, align 8, !tbaa !3
  store ptr %1, ptr %4, align 8, !tbaa !3
  call void @llvm.lifetime.start.p0(i64 16, ptr %5) #3
  %15 = load ptr, ptr %3, align 8, !tbaa !3
  %16 = getelementptr inbounds nuw %"class.cv::Mat", ptr %15, i32 0, i32 3
  %17 = load i32, ptr %16, align 4, !tbaa !8
  %18 = sub nsw i32 %17, 3
  %19 = load ptr, ptr %3, align 8, !tbaa !3
  %20 = getelementptr inbounds nuw %"class.cv::Mat", ptr %19, i32 0, i32 2
  %21 = load i32, ptr %20, align 8, !tbaa !18
  %22 = sub nsw i32 %21, 3
  call void @_ZN2cv5Rect_IiEC2Eiiii(ptr noundef nonnull align 4 dereferenceable(16) %5, i32 noundef 1, i32 noundef 1, i32 noundef %18, i32 noundef %22)
  call void @llvm.lifetime.start.p0(i64 8, ptr %6) #3
  call void @llvm.lifetime.start.p0(i64 8, ptr %7) #3
  call void @llvm.lifetime.start.p0(i64 8, ptr %8) #3
  call void @llvm.lifetime.start.p0(i64 8, ptr %9) #3
  %23 = getelementptr inbounds nuw %"class.cv::Rect_", ptr %5, i32 0, i32 0
  %24 = load i32, ptr %23, align 4, !tbaa !19
  %25 = sext i32 %24 to i64
  %26 = load ptr, ptr %3, align 8, !tbaa !3
  %27 = call noundef i64 @_ZNK2cv3Mat5step1Ei(ptr noundef nonnull align 8 dereferenceable(96) %26, i32 noundef 0)
  %28 = getelementptr inbounds nuw %"class.cv::Rect_", ptr %5, i32 0, i32 1
  %29 = load i32, ptr %28, align 4, !tbaa !21
  %30 = sext i32 %29 to i64
  %31 = mul i64 %27, %30
  %32 = add i64 %25, %31
  store i64 %32, ptr %6, align 8, !tbaa !22
  %33 = getelementptr inbounds nuw %"class.cv::Rect_", ptr %5, i32 0, i32 0
  %34 = load i32, ptr %33, align 4, !tbaa !19
  %35 = getelementptr inbounds nuw %"class.cv::Rect_", ptr %5, i32 0, i32 2
  %36 = load i32, ptr %35, align 4, !tbaa !24
  %37 = add nsw i32 %34, %36
  %38 = sext i32 %37 to i64
  %39 = load ptr, ptr %3, align 8, !tbaa !3
  %40 = call noundef i64 @_ZNK2cv3Mat5step1Ei(ptr noundef nonnull align 8 dereferenceable(96) %39, i32 noundef 0)
  %41 = getelementptr inbounds nuw %"class.cv::Rect_", ptr %5, i32 0, i32 1
  %42 = load i32, ptr %41, align 4, !tbaa !21
  %43 = sext i32 %42 to i64
  %44 = mul i64 %40, %43
  %45 = add i64 %38, %44
  store i64 %45, ptr %7, align 8, !tbaa !22
  %46 = getelementptr inbounds nuw %"class.cv::Rect_", ptr %5, i32 0, i32 0
  %47 = load i32, ptr %46, align 4, !tbaa !19
  %48 = sext i32 %47 to i64
  %49 = load ptr, ptr %3, align 8, !tbaa !3
  %50 = call noundef i64 @_ZNK2cv3Mat5step1Ei(ptr noundef nonnull align 8 dereferenceable(96) %49, i32 noundef 0)
  %51 = getelementptr inbounds nuw %"class.cv::Rect_", ptr %5, i32 0, i32 1
  %52 = load i32, ptr %51, align 4, !tbaa !21
  %53 = getelementptr inbounds nuw %"class.cv::Rect_", ptr %5, i32 0, i32 3
  %54 = load i32, ptr %53, align 4, !tbaa !25
  %55 = add nsw i32 %52, %54
  %56 = sext i32 %55 to i64
  %57 = mul i64 %50, %56
  %58 = add i64 %48, %57
  store i64 %58, ptr %8, align 8, !tbaa !22
  %59 = getelementptr inbounds nuw %"class.cv::Rect_", ptr %5, i32 0, i32 0
  %60 = load i32, ptr %59, align 4, !tbaa !19
  %61 = getelementptr inbounds nuw %"class.cv::Rect_", ptr %5, i32 0, i32 2
  %62 = load i32, ptr %61, align 4, !tbaa !24
  %63 = add nsw i32 %60, %62
  %64 = sext i32 %63 to i64
  %65 = load ptr, ptr %3, align 8, !tbaa !3
  %66 = call noundef i64 @_ZNK2cv3Mat5step1Ei(ptr noundef nonnull align 8 dereferenceable(96) %65, i32 noundef 0)
  %67 = getelementptr inbounds nuw %"class.cv::Rect_", ptr %5, i32 0, i32 1
  %68 = load i32, ptr %67, align 4, !tbaa !21
  %69 = getelementptr inbounds nuw %"class.cv::Rect_", ptr %5, i32 0, i32 3
  %70 = load i32, ptr %69, align 4, !tbaa !25
  %71 = add nsw i32 %68, %70
  %72 = sext i32 %71 to i64
  %73 = mul i64 %66, %72
  %74 = add i64 %64, %73
  store i64 %74, ptr %9, align 8, !tbaa !22
  call void @llvm.lifetime.start.p0(i64 8, ptr %10) #3
  %75 = getelementptr inbounds nuw %"class.cv::Rect_", ptr %5, i32 0, i32 2
  %76 = load i32, ptr %75, align 4, !tbaa !24
  %77 = getelementptr inbounds nuw %"class.cv::Rect_", ptr %5, i32 0, i32 3
  %78 = load i32, ptr %77, align 4, !tbaa !25
  %79 = mul nsw i32 %76, %78
  %80 = sitofp i32 %79 to double
  store double %80, ptr %10, align 8, !tbaa !26
  call void @llvm.lifetime.start.p0(i64 8, ptr %11) #3
  %81 = load ptr, ptr %3, align 8, !tbaa !3
  %82 = call noundef ptr @_ZNK2cv3Mat3ptrIiEEPKT_i(ptr noundef nonnull align 8 dereferenceable(96) %81, i32 noundef 0)
  store ptr %82, ptr %11, align 8, !tbaa !28
  call void @llvm.lifetime.start.p0(i64 4, ptr %12) #3
  %83 = load ptr, ptr %11, align 8, !tbaa !28
  %84 = load i64, ptr %6, align 8, !tbaa !22
  %85 = getelementptr inbounds nuw i32, ptr %83, i64 %84
  %86 = load i32, ptr %85, align 4, !tbaa !29
  %87 = load ptr, ptr %11, align 8, !tbaa !28
  %88 = load i64, ptr %7, align 8, !tbaa !22
  %89 = getelementptr inbounds nuw i32, ptr %87, i64 %88
  %90 = load i32, ptr %89, align 4, !tbaa !29
  %91 = sub nsw i32 %86, %90
  %92 = load ptr, ptr %11, align 8, !tbaa !28
  %93 = load i64, ptr %8, align 8, !tbaa !22
  %94 = getelementptr inbounds nuw i32, ptr %92, i64 %93
  %95 = load i32, ptr %94, align 4, !tbaa !29
  %96 = sub nsw i32 %91, %95
  %97 = load ptr, ptr %11, align 8, !tbaa !28
  %98 = load i64, ptr %9, align 8, !tbaa !22
  %99 = getelementptr inbounds nuw i32, ptr %97, i64 %98
  %100 = load i32, ptr %99, align 4, !tbaa !29
  %101 = add nsw i32 %96, %100
  store i32 %101, ptr %12, align 4, !tbaa !29
  call void @llvm.lifetime.start.p0(i64 8, ptr %13) #3
  %102 = load ptr, ptr %4, align 8, !tbaa !3
  %103 = call noundef ptr @_ZNK2cv3Mat3ptrIdEEPKT_i(ptr noundef nonnull align 8 dereferenceable(96) %102, i32 noundef 0)
  store ptr %103, ptr %13, align 8, !tbaa !30
  call void @llvm.lifetime.start.p0(i64 8, ptr %14) #3
  %104 = load ptr, ptr %13, align 8, !tbaa !30
  %105 = load i64, ptr %6, align 8, !tbaa !22
  %106 = getelementptr inbounds nuw double, ptr %104, i64 %105
  %107 = load double, ptr %106, align 8, !tbaa !26
  %108 = load ptr, ptr %13, align 8, !tbaa !30
  %109 = load i64, ptr %7, align 8, !tbaa !22
  %110 = getelementptr inbounds nuw double, ptr %108, i64 %109
  %111 = load double, ptr %110, align 8, !tbaa !26
  %112 = fsub double %107, %111
  %113 = load ptr, ptr %13, align 8, !tbaa !30
  %114 = load i64, ptr %8, align 8, !tbaa !22
  %115 = getelementptr inbounds nuw double, ptr %113, i64 %114
  %116 = load double, ptr %115, align 8, !tbaa !26
  %117 = fsub double %112, %116
  %118 = load ptr, ptr %13, align 8, !tbaa !30
  %119 = load i64, ptr %9, align 8, !tbaa !22
  %120 = getelementptr inbounds nuw double, ptr %118, i64 %119
  %121 = load double, ptr %120, align 8, !tbaa !26
  %122 = fadd double %117, %121
  store double %122, ptr %14, align 8, !tbaa !26
  %123 = load double, ptr %10, align 8, !tbaa !26
  %124 = load double, ptr %14, align 8, !tbaa !26
  %125 = load i32, ptr %12, align 4, !tbaa !29
  %126 = sitofp i32 %125 to double
  %127 = load i32, ptr %12, align 4, !tbaa !29
  %128 = sitofp i32 %127 to double
  %129 = fmul double %126, %128
  %130 = fneg double %129
  %131 = call double @llvm.fmuladd.f64(double %123, double %124, double %130)
  %132 = call double @sqrt(double noundef %131) #3, !tbaa !29
  %133 = fptrunc double %132 to float
  call void @llvm.lifetime.end.p0(i64 8, ptr %14) #3
  call void @llvm.lifetime.end.p0(i64 8, ptr %13) #3
  call void @llvm.lifetime.end.p0(i64 4, ptr %12) #3
  call void @llvm.lifetime.end.p0(i64 8, ptr %11) #3
  call void @llvm.lifetime.end.p0(i64 8, ptr %10) #3
  call void @llvm.lifetime.end.p0(i64 8, ptr %9) #3
  call void @llvm.lifetime.end.p0(i64 8, ptr %8) #3
  call void @llvm.lifetime.end.p0(i64 8, ptr %7) #3
  call void @llvm.lifetime.end.p0(i64 8, ptr %6) #3
  call void @llvm.lifetime.end.p0(i64 16, ptr %5) #3
  ret float %133
}