; Function Attrs: mustprogress uwtable
define hidden noundef float @_ZN2cv10xobjdetect14calcNormFactorERKNS_3MatES3_(ptr noundef nonnull align 8 dereferenceable(96) %0, ptr noundef nonnull readonly align 8 captures(none) dereferenceable(96) %1) local_unnamed_addr #3 {
  %3 = getelementptr inbounds nuw i8, ptr %0, i64 12
  %4 = load i32, ptr %3, align 4, !tbaa !3
  %5 = add nsw i32 %4, -3
  %6 = getelementptr inbounds nuw i8, ptr %0, i64 8
  %7 = load i32, ptr %6, align 8, !tbaa !16
  %8 = add nsw i32 %7, -3
  %9 = tail call noundef i64 @_ZNK2cv3Mat5step1Ei(ptr noundef nonnull align 8 dereferenceable(96) %0, i32 noundef 0)
  %10 = add i64 %9, 1
  %11 = add nsw i32 %4, -2
  %12 = sext i32 %11 to i64
  %13 = tail call noundef i64 @_ZNK2cv3Mat5step1Ei(ptr noundef nonnull align 8 dereferenceable(96) %0, i32 noundef 0)
  %14 = add i64 %13, %12
  %15 = tail call noundef i64 @_ZNK2cv3Mat5step1Ei(ptr noundef nonnull align 8 dereferenceable(96) %0, i32 noundef 0)
  %16 = add nsw i32 %7, -2
  %17 = sext i32 %16 to i64
  %18 = mul i64 %15, %17
  %19 = add i64 %18, 1
  %20 = tail call noundef i64 @_ZNK2cv3Mat5step1Ei(ptr noundef nonnull align 8 dereferenceable(96) %0, i32 noundef 0)
  %21 = mul i64 %20, %17
  %22 = add i64 %21, %12
  %23 = mul nsw i32 %8, %5
  %24 = sitofp i32 %23 to double
  %25 = getelementptr inbounds nuw i8, ptr %0, i64 16
  %26 = load ptr, ptr %25, align 8, !tbaa !17
  %27 = getelementptr inbounds nuw i32, ptr %26, i64 %10
  %28 = load i32, ptr %27, align 4, !tbaa !18
  %29 = getelementptr inbounds nuw i32, ptr %26, i64 %14
  %30 = load i32, ptr %29, align 4, !tbaa !18
  %31 = getelementptr inbounds nuw i32, ptr %26, i64 %19
  %32 = load i32, ptr %31, align 4, !tbaa !18
  %33 = getelementptr inbounds nuw i32, ptr %26, i64 %22
  %34 = load i32, ptr %33, align 4, !tbaa !18
  %35 = add i32 %30, %32
  %36 = sub i32 %28, %35
  %37 = add nsw i32 %36, %34
  %38 = getelementptr inbounds nuw i8, ptr %1, i64 16
  %39 = load ptr, ptr %38, align 8, !tbaa !17
  %40 = getelementptr inbounds nuw double, ptr %39, i64 %10
  %41 = load double, ptr %40, align 8, !tbaa !19
  %42 = getelementptr inbounds nuw double, ptr %39, i64 %14
  %43 = load double, ptr %42, align 8, !tbaa !19
  %44 = fsub double %41, %43
  %45 = getelementptr inbounds nuw double, ptr %39, i64 %19
  %46 = load double, ptr %45, align 8, !tbaa !19
  %47 = fsub double %44, %46
  %48 = getelementptr inbounds nuw double, ptr %39, i64 %22
  %49 = load double, ptr %48, align 8, !tbaa !19
  %50 = fadd double %47, %49
  %51 = sitofp i32 %37 to double
  %52 = fneg double %51
  %53 = fmul double %51, %52
  %54 = tail call double @llvm.fmuladd.f64(double %24, double %50, double %53)
  %55 = tail call double @sqrt(double noundef %54) #21, !tbaa !18
  %56 = fptrunc double %55 to float
  ret float %56
}